; Function Attrs: mustprogress nofree nounwind willreturn memory(write) uwtable
define internal { double, double } @_ZL16vandg4_s_forward5PJ_LPP8PJconsts(double %0, double %1, ptr readnone captures(none) %2) #3 {
  %4 = tail call double @llvm.fabs.f64(double %1)
  %5 = fcmp olt double %4, 1.000000e-10
  br i1 %5, label %68, label %6

6:                                                ; preds = %3
  %7 = tail call double @llvm.fabs.f64(double %0)
  %8 = fcmp olt double %7, 1.000000e-10
  br i1 %8, label %68, label %9

9:                                                ; preds = %6
  %10 = fadd double %4, 0xBFF921FB54442D18
  %11 = tail call double @llvm.fabs.f64(double %10)
  %12 = fcmp olt double %11, 1.000000e-10
  br i1 %12, label %68, label %13

13:                                               ; preds = %9
  %14 = fmul double %1, 0x3FE45F306DC9C883
  %15 = tail call double @llvm.fabs.f64(double %14)
  %16 = fmul double %14, %14
  %17 = fadd double %16, 2.000000e+00
  %18 = fneg double %15
  %19 = tail call double @llvm.fmuladd.f64(double %18, double %17, double 8.000000e+00)
  %20 = tail call double @llvm.fmuladd.f64(double %15, double %19, double -5.000000e+00)
  %21 = fmul double %20, 5.000000e-01
  %22 = fadd double %15, -1.000000e+00
  %23 = fmul double %16, %22
  %24 = fdiv double %21, %23
  %25 = fmul double %24, %24
  %26 = fmul double %0, 0x3FE45F306DC9C883
  %27 = fdiv double 1.000000e+00, %26
  %28 = fadd double %26, %27
  %29 = tail call double @llvm.fmuladd.f64(double %28, double %28, double -4.000000e+00)
  %30 = tail call double @sqrt(double noundef %29) #6, !tbaa !42
  %31 = fadd double %7, 0xBFF921FB54442D18
  %32 = fcmp olt double %31, 0.000000e+00
  %33 = fneg double %30
  %.0 = select i1 %32, double %33, double %30
  %34 = fmul double %.0, %.0
  %35 = fadd double %15, %24
  %36 = fmul double %35, %35
  %37 = tail call double @llvm.fmuladd.f64(double %24, double 3.000000e+00, double %15)
  %38 = tail call double @llvm.fmuladd.f64(double %25, double %34, double %16)
  %39 = fadd double %38, -1.000000e+00
  %40 = fsub double 1.000000e+00, %16
  %41 = fmul double %25, 4.000000e+00
  %42 = tail call double @llvm.fmuladd.f64(double %37, double %37, double %41)
  %43 = fmul double %15, 1.200000e+01
  %44 = tail call double @llvm.fmuladd.f64(double %43, double %24, double %41)
  %45 = fmul double %25, %44
  %46 = tail call double @llvm.fmuladd.f64(double %16, double %42, double %45)
  %47 = fmul double %40, %46
  %48 = tail call double @llvm.fmuladd.f64(double %36, double %39, double %47)
  %49 = fadd double %25, %36
  %50 = fadd double %49, -1.000000e+00
  %51 = tail call double @sqrt(double noundef %48) #6, !tbaa !42
  %52 = fmul double %51, 2.000000e+00
  %53 = tail call double @llvm.fmuladd.f64(double %.0, double %50, double %52)
  %54 = tail call double @llvm.fmuladd.f64(double %36, double 4.000000e+00, double %34)
  %55 = fdiv double %53, %54
  %56 = fmul double %55, 0x3FF921FB54442D18
  %57 = tail call double @llvm.fabs.f64(double %55)
  %58 = tail call double @llvm.fmuladd.f64(double %.0, double %57, double 1.000000e+00)
  %59 = fneg double %55
  %60 = tail call double @llvm.fmuladd.f64(double %59, double %55, double %58)
  %61 = tail call double @sqrt(double noundef %60) #6, !tbaa !42
  %62 = fmul double %61, 0x3FF921FB54442D18
  %63 = fcmp olt double %0, 0.000000e+00
  %64 = fneg double %56
  %.sroa.054.1 = select i1 %63, double %64, double %56
  %65 = fcmp olt double %1, 0.000000e+00
  br i1 %65, label %66, label %68

66:                                               ; preds = %13
  %67 = fneg double %62
  br label %68

68:                                               ; preds = %6, %9, %3, %66, %13
  %.sroa.7.0 = phi double [ %67, %66 ], [ %62, %13 ], [ 0.000000e+00, %3 ], [ %1, %9 ], [ %1, %6 ]
  %.sroa.054.0 = phi double [ %.sroa.054.1, %66 ], [ %.sroa.054.1, %13 ], [ %0, %3 ], [ 0.000000e+00, %9 ], [ 0.000000e+00, %6 ]
  %.fca.0.insert = insertvalue { double, double } poison, double %.sroa.054.0, 0
  %.fca.1.insert = insertvalue { double, double } %.fca.0.insert, double %.sroa.7.0, 1
  ret { double, double } %.fca.1.insert
}